; Function Attrs: nounwind sspstrong uwtable
define dso_local void @tcg_gen_andi_i64(ptr noundef %0, ptr noundef %1, i64 noundef %2) local_unnamed_addr #2 {
  switch i64 %2, label %59 [
    i64 0, label %4
    i64 -1, label %17
    i64 255, label %29
    i64 65535, label %39
    i64 4294967295, label %49
  ]

4:                                                ; preds = %3
  %5 = tail call ptr @tcg_constant_i64(i64 noundef 0) #6
  %6 = icmp eq ptr %0, %5
  br i1 %6, label %tcg_gen_movi_i64.exit, label %7

7:                                                ; preds = %4
  %8 = tail call align 8 ptr @llvm.threadlocal.address.p0(ptr align 8 @tcg_ctx)
  %9 = load ptr, ptr %8, align 8
  %10 = ptrtoint ptr %0 to i64
  %11 = getelementptr inbounds nuw i8, ptr %9, i64 %10
  %12 = ptrtoint ptr %11 to i64
  %13 = ptrtoint ptr %5 to i64
  %14 = getelementptr inbounds nuw i8, ptr %9, i64 %13
  %15 = ptrtoint ptr %14 to i64
  %16 = tail call ptr @tcg_gen_op2(i32 noundef 63, i32 noundef 1, i64 noundef %12, i64 noundef %15)
  br label %tcg_gen_movi_i64.exit

17:                                               ; preds = %3
  %18 = icmp eq ptr %0, %1
  br i1 %18, label %tcg_gen_movi_i64.exit, label %19

19:                                               ; preds = %17
  %20 = tail call align 8 ptr @llvm.threadlocal.address.p0(ptr align 8 @tcg_ctx)
  %21 = load ptr, ptr %20, align 8
  %22 = ptrtoint ptr %0 to i64
  %23 = getelementptr inbounds nuw i8, ptr %21, i64 %22
  %24 = ptrtoint ptr %23 to i64
  %25 = ptrtoint ptr %1 to i64
  %26 = getelementptr inbounds nuw i8, ptr %21, i64 %25
  %27 = ptrtoint ptr %26 to i64
  %28 = tail call ptr @tcg_gen_op2(i32 noundef 63, i32 noundef 1, i64 noundef %24, i64 noundef %27)
  br label %tcg_gen_movi_i64.exit

29:                                               ; preds = %3
  %30 = tail call align 8 ptr @llvm.threadlocal.address.p0(ptr align 8 @tcg_ctx)
  %31 = load ptr, ptr %30, align 8
  %32 = ptrtoint ptr %0 to i64
  %33 = getelementptr inbounds nuw i8, ptr %31, i64 %32
  %34 = ptrtoint ptr %33 to i64
  %35 = ptrtoint ptr %1 to i64
  %36 = getelementptr inbounds nuw i8, ptr %31, i64 %35
  %37 = ptrtoint ptr %36 to i64
  %38 = tail call ptr @tcg_gen_op2(i32 noundef 107, i32 noundef 1, i64 noundef %34, i64 noundef %37)
  br label %tcg_gen_movi_i64.exit

39:                                               ; preds = %3
  %40 = tail call align 8 ptr @llvm.threadlocal.address.p0(ptr align 8 @tcg_ctx)
  %41 = load ptr, ptr %40, align 8
  %42 = ptrtoint ptr %0 to i64
  %43 = getelementptr inbounds nuw i8, ptr %41, i64 %42
  %44 = ptrtoint ptr %43 to i64
  %45 = ptrtoint ptr %1 to i64
  %46 = getelementptr inbounds nuw i8, ptr %41, i64 %45
  %47 = ptrtoint ptr %46 to i64
  %48 = tail call ptr @tcg_gen_op2(i32 noundef 108, i32 noundef 1, i64 noundef %44, i64 noundef %47)
  br label %tcg_gen_movi_i64.exit

49:                                               ; preds = %3
  %50 = tail call align 8 ptr @llvm.threadlocal.address.p0(ptr align 8 @tcg_ctx)
  %51 = load ptr, ptr %50, align 8
  %52 = ptrtoint ptr %0 to i64
  %53 = getelementptr inbounds nuw i8, ptr %51, i64 %52
  %54 = ptrtoint ptr %53 to i64
  %55 = ptrtoint ptr %1 to i64
  %56 = getelementptr inbounds nuw i8, ptr %51, i64 %55
  %57 = ptrtoint ptr %56 to i64
  %58 = tail call ptr @tcg_gen_op2(i32 noundef 109, i32 noundef 1, i64 noundef %54, i64 noundef %57)
  br label %tcg_gen_movi_i64.exit

59:                                               ; preds = %3
  %60 = tail call ptr @tcg_constant_i64(i64 noundef %2) #6
  %61 = tail call align 8 ptr @llvm.threadlocal.address.p0(ptr align 8 @tcg_ctx)
  %62 = load ptr, ptr %61, align 8
  %63 = ptrtoint ptr %0 to i64
  %64 = getelementptr inbounds nuw i8, ptr %62, i64 %63
  %65 = ptrtoint ptr %64 to i64
  %66 = ptrtoint ptr %1 to i64
  %67 = getelementptr inbounds nuw i8, ptr %62, i64 %66
  %68 = ptrtoint ptr %67 to i64
  %69 = ptrtoint ptr %60 to i64
  %70 = getelementptr inbounds nuw i8, ptr %62, i64 %69
  %71 = ptrtoint ptr %70 to i64
  %72 = tail call ptr @tcg_gen_op3(i32 noundef 87, i32 noundef 1, i64 noundef %65, i64 noundef %68, i64 noundef %71)
  br label %tcg_gen_movi_i64.exit

tcg_gen_movi_i64.exit:                            ; preds = %19, %17, %7, %4, %59, %49, %39, %29
  ret void
}